                              1 ;--------------------------------------------------------
                              2 ; File Created by SDCC : free open source ANSI-C Compiler
                              3 ; Version 3.0.0 #6037 (Oct 31 2010) (MINGW32)
                              4 ; This file was generated Sat Dec 09 23:16:41 2017
                              5 ;--------------------------------------------------------
                              6 	.module i2c
                              7 	.optsdcc -mmcs51 --model-large
                              8 	
                              9 ;--------------------------------------------------------
                             10 ; Public variables in this module
                             11 ;--------------------------------------------------------
                             12 	.globl _P5_7
                             13 	.globl _P5_6
                             14 	.globl _P5_5
                             15 	.globl _P5_4
                             16 	.globl _P5_3
                             17 	.globl _P5_2
                             18 	.globl _P5_1
                             19 	.globl _P5_0
                             20 	.globl _P4_7
                             21 	.globl _P4_6
                             22 	.globl _P4_5
                             23 	.globl _P4_4
                             24 	.globl _P4_3
                             25 	.globl _P4_2
                             26 	.globl _P4_1
                             27 	.globl _P4_0
                             28 	.globl _PX0L
                             29 	.globl _PT0L
                             30 	.globl _PX1L
                             31 	.globl _PT1L
                             32 	.globl _PLS
                             33 	.globl _PT2L
                             34 	.globl _PPCL
                             35 	.globl _EC
                             36 	.globl _CCF0
                             37 	.globl _CCF1
                             38 	.globl _CCF2
                             39 	.globl _CCF3
                             40 	.globl _CCF4
                             41 	.globl _CR
                             42 	.globl _CF
                             43 	.globl _TF2
                             44 	.globl _EXF2
                             45 	.globl _RCLK
                             46 	.globl _TCLK
                             47 	.globl _EXEN2
                             48 	.globl _TR2
                             49 	.globl _C_T2
                             50 	.globl _CP_RL2
                             51 	.globl _T2CON_7
                             52 	.globl _T2CON_6
                             53 	.globl _T2CON_5
                             54 	.globl _T2CON_4
                             55 	.globl _T2CON_3
                             56 	.globl _T2CON_2
                             57 	.globl _T2CON_1
                             58 	.globl _T2CON_0
                             59 	.globl _PT2
                             60 	.globl _ET2
                             61 	.globl _TF1
                             62 	.globl _TR1
                             63 	.globl _TF0
                             64 	.globl _TR0
                             65 	.globl _IE1
                             66 	.globl _IT1
                             67 	.globl _IE0
                             68 	.globl _IT0
                             69 	.globl _SM0
                             70 	.globl _SM1
                             71 	.globl _SM2
                             72 	.globl _REN
                             73 	.globl _TB8
                             74 	.globl _RB8
                             75 	.globl _TI
                             76 	.globl _RI
                             77 	.globl _CY
                             78 	.globl _AC
                             79 	.globl _F0
                             80 	.globl _RS1
                             81 	.globl _RS0
                             82 	.globl _OV
                             83 	.globl _F1
                             84 	.globl _P
                             85 	.globl _RD
                             86 	.globl _WR
                             87 	.globl _T1
                             88 	.globl _T0
                             89 	.globl _INT1
                             90 	.globl _INT0
                             91 	.globl _TXD0
                             92 	.globl _TXD
                             93 	.globl _RXD0
                             94 	.globl _RXD
                             95 	.globl _P3_7
                             96 	.globl _P3_6
                             97 	.globl _P3_5
                             98 	.globl _P3_4
                             99 	.globl _P3_3
                            100 	.globl _P3_2
                            101 	.globl _P3_1
                            102 	.globl _P3_0
                            103 	.globl _P2_7
                            104 	.globl _P2_6
                            105 	.globl _P2_5
                            106 	.globl _P2_4
                            107 	.globl _P2_3
                            108 	.globl _P2_2
                            109 	.globl _P2_1
                            110 	.globl _P2_0
                            111 	.globl _P1_7
                            112 	.globl _P1_6
                            113 	.globl _P1_5
                            114 	.globl _P1_4
                            115 	.globl _P1_3
                            116 	.globl _P1_2
                            117 	.globl _P1_1
                            118 	.globl _P1_0
                            119 	.globl _P0_7
                            120 	.globl _P0_6
                            121 	.globl _P0_5
                            122 	.globl _P0_4
                            123 	.globl _P0_3
                            124 	.globl _P0_2
                            125 	.globl _P0_1
                            126 	.globl _P0_0
                            127 	.globl _PS
                            128 	.globl _PT1
                            129 	.globl _PX1
                            130 	.globl _PT0
                            131 	.globl _PX0
                            132 	.globl _EA
                            133 	.globl _ES
                            134 	.globl _ET1
                            135 	.globl _EX1
                            136 	.globl _ET0
                            137 	.globl _EX0
                            138 	.globl _BREG_F7
                            139 	.globl _BREG_F6
                            140 	.globl _BREG_F5
                            141 	.globl _BREG_F4
                            142 	.globl _BREG_F3
                            143 	.globl _BREG_F2
                            144 	.globl _BREG_F1
                            145 	.globl _BREG_F0
                            146 	.globl _EECON
                            147 	.globl _KBF
                            148 	.globl _KBE
                            149 	.globl _KBLS
                            150 	.globl _BRL
                            151 	.globl _BDRCON
                            152 	.globl _T2MOD
                            153 	.globl _SPDAT
                            154 	.globl _SPSTA
                            155 	.globl _SPCON
                            156 	.globl _SADEN
                            157 	.globl _SADDR
                            158 	.globl _WDTPRG
                            159 	.globl _WDTRST
                            160 	.globl _P5
                            161 	.globl _P4
                            162 	.globl _IPH1
                            163 	.globl _IPL1
                            164 	.globl _IPH0
                            165 	.globl _IPL0
                            166 	.globl _IEN1
                            167 	.globl _IEN0
                            168 	.globl _CMOD
                            169 	.globl _CL
                            170 	.globl _CH
                            171 	.globl _CCON
                            172 	.globl _CCAPM4
                            173 	.globl _CCAPM3
                            174 	.globl _CCAPM2
                            175 	.globl _CCAPM1
                            176 	.globl _CCAPM0
                            177 	.globl _CCAP4L
                            178 	.globl _CCAP3L
                            179 	.globl _CCAP2L
                            180 	.globl _CCAP1L
                            181 	.globl _CCAP0L
                            182 	.globl _CCAP4H
                            183 	.globl _CCAP3H
                            184 	.globl _CCAP2H
                            185 	.globl _CCAP1H
                            186 	.globl _CCAP0H
                            187 	.globl _CKCON1
                            188 	.globl _CKCON0
                            189 	.globl _CKRL
                            190 	.globl _AUXR1
                            191 	.globl _AUXR
                            192 	.globl _TH2
                            193 	.globl _TL2
                            194 	.globl _RCAP2H
                            195 	.globl _RCAP2L
                            196 	.globl _T2CON
                            197 	.globl _TMOD
                            198 	.globl _TL1
                            199 	.globl _TL0
                            200 	.globl _TH1
                            201 	.globl _TH0
                            202 	.globl _TCON
                            203 	.globl _SP
                            204 	.globl _SCON
                            205 	.globl _SBUF0
                            206 	.globl _SBUF
                            207 	.globl _PSW
                            208 	.globl _PCON
                            209 	.globl _P3
                            210 	.globl _P2
                            211 	.globl _P1
                            212 	.globl _P0
                            213 	.globl _IP
                            214 	.globl _IE
                            215 	.globl _DP0L
                            216 	.globl _DPL
                            217 	.globl _DP0H
                            218 	.globl _DPH
                            219 	.globl _B
                            220 	.globl _ACC
                            221 	.globl _write_byte_to_eeprom_PARM_2
                            222 	.globl _delay
                            223 	.globl _InitI2c
                            224 	.globl _StartI2c
                            225 	.globl _RepeatedStartI2c
                            226 	.globl _StopI2c
                            227 	.globl _SendAckBit
                            228 	.globl _SendNackBit
                            229 	.globl _write_i2c
                            230 	.globl _read_i2c
                            231 	.globl _write_byte_to_eeprom
                            232 	.globl _read_byte_from_eeprom
                            233 	.globl _reset_eeprom
                            234 ;--------------------------------------------------------
                            235 ; special function registers
                            236 ;--------------------------------------------------------
                            237 	.area RSEG    (ABS,DATA)
   0000                     238 	.org 0x0000
                    00E0    239 _ACC	=	0x00e0
                    00F0    240 _B	=	0x00f0
                    0083    241 _DPH	=	0x0083
                    0083    242 _DP0H	=	0x0083
                    0082    243 _DPL	=	0x0082
                    0082    244 _DP0L	=	0x0082
                    00A8    245 _IE	=	0x00a8
                    00B8    246 _IP	=	0x00b8
                    0080    247 _P0	=	0x0080
                    0090    248 _P1	=	0x0090
                    00A0    249 _P2	=	0x00a0
                    00B0    250 _P3	=	0x00b0
                    0087    251 _PCON	=	0x0087
                    00D0    252 _PSW	=	0x00d0
                    0099    253 _SBUF	=	0x0099
                    0099    254 _SBUF0	=	0x0099
                    0098    255 _SCON	=	0x0098
                    0081    256 _SP	=	0x0081
                    0088    257 _TCON	=	0x0088
                    008C    258 _TH0	=	0x008c
                    008D    259 _TH1	=	0x008d
                    008A    260 _TL0	=	0x008a
                    008B    261 _TL1	=	0x008b
                    0089    262 _TMOD	=	0x0089
                    00C8    263 _T2CON	=	0x00c8
                    00CA    264 _RCAP2L	=	0x00ca
                    00CB    265 _RCAP2H	=	0x00cb
                    00CC    266 _TL2	=	0x00cc
                    00CD    267 _TH2	=	0x00cd
                    008E    268 _AUXR	=	0x008e
                    00A2    269 _AUXR1	=	0x00a2
                    0097    270 _CKRL	=	0x0097
                    008F    271 _CKCON0	=	0x008f
                    00AF    272 _CKCON1	=	0x00af
                    00FA    273 _CCAP0H	=	0x00fa
                    00FB    274 _CCAP1H	=	0x00fb
                    00FC    275 _CCAP2H	=	0x00fc
                    00FD    276 _CCAP3H	=	0x00fd
                    00FE    277 _CCAP4H	=	0x00fe
                    00EA    278 _CCAP0L	=	0x00ea
                    00EB    279 _CCAP1L	=	0x00eb
                    00EC    280 _CCAP2L	=	0x00ec
                    00ED    281 _CCAP3L	=	0x00ed
                    00EE    282 _CCAP4L	=	0x00ee
                    00DA    283 _CCAPM0	=	0x00da
                    00DB    284 _CCAPM1	=	0x00db
                    00DC    285 _CCAPM2	=	0x00dc
                    00DD    286 _CCAPM3	=	0x00dd
                    00DE    287 _CCAPM4	=	0x00de
                    00D8    288 _CCON	=	0x00d8
                    00F9    289 _CH	=	0x00f9
                    00E9    290 _CL	=	0x00e9
                    00D9    291 _CMOD	=	0x00d9
                    00A8    292 _IEN0	=	0x00a8
                    00B1    293 _IEN1	=	0x00b1
                    00B8    294 _IPL0	=	0x00b8
                    00B7    295 _IPH0	=	0x00b7
                    00B2    296 _IPL1	=	0x00b2
                    00B3    297 _IPH1	=	0x00b3
                    00C0    298 _P4	=	0x00c0
                    00E8    299 _P5	=	0x00e8
                    00A6    300 _WDTRST	=	0x00a6
                    00A7    301 _WDTPRG	=	0x00a7
                    00A9    302 _SADDR	=	0x00a9
                    00B9    303 _SADEN	=	0x00b9
                    00C3    304 _SPCON	=	0x00c3
                    00C4    305 _SPSTA	=	0x00c4
                    00C5    306 _SPDAT	=	0x00c5
                    00C9    307 _T2MOD	=	0x00c9
                    009B    308 _BDRCON	=	0x009b
                    009A    309 _BRL	=	0x009a
                    009C    310 _KBLS	=	0x009c
                    009D    311 _KBE	=	0x009d
                    009E    312 _KBF	=	0x009e
                    00D2    313 _EECON	=	0x00d2
                            314 ;--------------------------------------------------------
                            315 ; special function bits
                            316 ;--------------------------------------------------------
                            317 	.area RSEG    (ABS,DATA)
   0000                     318 	.org 0x0000
                    00F0    319 _BREG_F0	=	0x00f0
                    00F1    320 _BREG_F1	=	0x00f1
                    00F2    321 _BREG_F2	=	0x00f2
                    00F3    322 _BREG_F3	=	0x00f3
                    00F4    323 _BREG_F4	=	0x00f4
                    00F5    324 _BREG_F5	=	0x00f5
                    00F6    325 _BREG_F6	=	0x00f6
                    00F7    326 _BREG_F7	=	0x00f7
                    00A8    327 _EX0	=	0x00a8
                    00A9    328 _ET0	=	0x00a9
                    00AA    329 _EX1	=	0x00aa
                    00AB    330 _ET1	=	0x00ab
                    00AC    331 _ES	=	0x00ac
                    00AF    332 _EA	=	0x00af
                    00B8    333 _PX0	=	0x00b8
                    00B9    334 _PT0	=	0x00b9
                    00BA    335 _PX1	=	0x00ba
                    00BB    336 _PT1	=	0x00bb
                    00BC    337 _PS	=	0x00bc
                    0080    338 _P0_0	=	0x0080
                    0081    339 _P0_1	=	0x0081
                    0082    340 _P0_2	=	0x0082
                    0083    341 _P0_3	=	0x0083
                    0084    342 _P0_4	=	0x0084
                    0085    343 _P0_5	=	0x0085
                    0086    344 _P0_6	=	0x0086
                    0087    345 _P0_7	=	0x0087
                    0090    346 _P1_0	=	0x0090
                    0091    347 _P1_1	=	0x0091
                    0092    348 _P1_2	=	0x0092
                    0093    349 _P1_3	=	0x0093
                    0094    350 _P1_4	=	0x0094
                    0095    351 _P1_5	=	0x0095
                    0096    352 _P1_6	=	0x0096
                    0097    353 _P1_7	=	0x0097
                    00A0    354 _P2_0	=	0x00a0
                    00A1    355 _P2_1	=	0x00a1
                    00A2    356 _P2_2	=	0x00a2
                    00A3    357 _P2_3	=	0x00a3
                    00A4    358 _P2_4	=	0x00a4
                    00A5    359 _P2_5	=	0x00a5
                    00A6    360 _P2_6	=	0x00a6
                    00A7    361 _P2_7	=	0x00a7
                    00B0    362 _P3_0	=	0x00b0
                    00B1    363 _P3_1	=	0x00b1
                    00B2    364 _P3_2	=	0x00b2
                    00B3    365 _P3_3	=	0x00b3
                    00B4    366 _P3_4	=	0x00b4
                    00B5    367 _P3_5	=	0x00b5
                    00B6    368 _P3_6	=	0x00b6
                    00B7    369 _P3_7	=	0x00b7
                    00B0    370 _RXD	=	0x00b0
                    00B0    371 _RXD0	=	0x00b0
                    00B1    372 _TXD	=	0x00b1
                    00B1    373 _TXD0	=	0x00b1
                    00B2    374 _INT0	=	0x00b2
                    00B3    375 _INT1	=	0x00b3
                    00B4    376 _T0	=	0x00b4
                    00B5    377 _T1	=	0x00b5
                    00B6    378 _WR	=	0x00b6
                    00B7    379 _RD	=	0x00b7
                    00D0    380 _P	=	0x00d0
                    00D1    381 _F1	=	0x00d1
                    00D2    382 _OV	=	0x00d2
                    00D3    383 _RS0	=	0x00d3
                    00D4    384 _RS1	=	0x00d4
                    00D5    385 _F0	=	0x00d5
                    00D6    386 _AC	=	0x00d6
                    00D7    387 _CY	=	0x00d7
                    0098    388 _RI	=	0x0098
                    0099    389 _TI	=	0x0099
                    009A    390 _RB8	=	0x009a
                    009B    391 _TB8	=	0x009b
                    009C    392 _REN	=	0x009c
                    009D    393 _SM2	=	0x009d
                    009E    394 _SM1	=	0x009e
                    009F    395 _SM0	=	0x009f
                    0088    396 _IT0	=	0x0088
                    0089    397 _IE0	=	0x0089
                    008A    398 _IT1	=	0x008a
                    008B    399 _IE1	=	0x008b
                    008C    400 _TR0	=	0x008c
                    008D    401 _TF0	=	0x008d
                    008E    402 _TR1	=	0x008e
                    008F    403 _TF1	=	0x008f
                    00AD    404 _ET2	=	0x00ad
                    00BD    405 _PT2	=	0x00bd
                    00C8    406 _T2CON_0	=	0x00c8
                    00C9    407 _T2CON_1	=	0x00c9
                    00CA    408 _T2CON_2	=	0x00ca
                    00CB    409 _T2CON_3	=	0x00cb
                    00CC    410 _T2CON_4	=	0x00cc
                    00CD    411 _T2CON_5	=	0x00cd
                    00CE    412 _T2CON_6	=	0x00ce
                    00CF    413 _T2CON_7	=	0x00cf
                    00C8    414 _CP_RL2	=	0x00c8
                    00C9    415 _C_T2	=	0x00c9
                    00CA    416 _TR2	=	0x00ca
                    00CB    417 _EXEN2	=	0x00cb
                    00CC    418 _TCLK	=	0x00cc
                    00CD    419 _RCLK	=	0x00cd
                    00CE    420 _EXF2	=	0x00ce
                    00CF    421 _TF2	=	0x00cf
                    00DF    422 _CF	=	0x00df
                    00DE    423 _CR	=	0x00de
                    00DC    424 _CCF4	=	0x00dc
                    00DB    425 _CCF3	=	0x00db
                    00DA    426 _CCF2	=	0x00da
                    00D9    427 _CCF1	=	0x00d9
                    00D8    428 _CCF0	=	0x00d8
                    00AE    429 _EC	=	0x00ae
                    00BE    430 _PPCL	=	0x00be
                    00BD    431 _PT2L	=	0x00bd
                    00BC    432 _PLS	=	0x00bc
                    00BB    433 _PT1L	=	0x00bb
                    00BA    434 _PX1L	=	0x00ba
                    00B9    435 _PT0L	=	0x00b9
                    00B8    436 _PX0L	=	0x00b8
                    00C0    437 _P4_0	=	0x00c0
                    00C1    438 _P4_1	=	0x00c1
                    00C2    439 _P4_2	=	0x00c2
                    00C3    440 _P4_3	=	0x00c3
                    00C4    441 _P4_4	=	0x00c4
                    00C5    442 _P4_5	=	0x00c5
                    00C6    443 _P4_6	=	0x00c6
                    00C7    444 _P4_7	=	0x00c7
                    00E8    445 _P5_0	=	0x00e8
                    00E9    446 _P5_1	=	0x00e9
                    00EA    447 _P5_2	=	0x00ea
                    00EB    448 _P5_3	=	0x00eb
                    00EC    449 _P5_4	=	0x00ec
                    00ED    450 _P5_5	=	0x00ed
                    00EE    451 _P5_6	=	0x00ee
                    00EF    452 _P5_7	=	0x00ef
                            453 ;--------------------------------------------------------
                            454 ; overlayable register banks
                            455 ;--------------------------------------------------------
                            456 	.area REG_BANK_0	(REL,OVR,DATA)
   0000                     457 	.ds 8
                            458 ;--------------------------------------------------------
                            459 ; internal ram data
                            460 ;--------------------------------------------------------
                            461 	.area DSEG    (DATA)
                            462 ;--------------------------------------------------------
                            463 ; overlayable items in internal ram 
                            464 ;--------------------------------------------------------
                            465 	.area OSEG    (OVR,DATA)
                            466 ;--------------------------------------------------------
                            467 ; indirectly addressable internal ram data
                            468 ;--------------------------------------------------------
                            469 	.area ISEG    (DATA)
                            470 ;--------------------------------------------------------
                            471 ; absolute internal ram data
                            472 ;--------------------------------------------------------
                            473 	.area IABS    (ABS,DATA)
                            474 	.area IABS    (ABS,DATA)
                            475 ;--------------------------------------------------------
                            476 ; bit data
                            477 ;--------------------------------------------------------
                            478 	.area BSEG    (BIT)
                            479 ;--------------------------------------------------------
                            480 ; paged external ram data
                            481 ;--------------------------------------------------------
                            482 	.area PSEG    (PAG,XDATA)
                            483 ;--------------------------------------------------------
                            484 ; external ram data
                            485 ;--------------------------------------------------------
                            486 	.area XSEG    (XDATA)
   0000                     487 _delay_d_1_1:
   0000                     488 	.ds 2
   0002                     489 _write_i2c_byte_1_1:
   0002                     490 	.ds 1
   0003                     491 _read_i2c_rxdata_1_1:
   0003                     492 	.ds 1
   0004                     493 _write_byte_to_eeprom_PARM_2:
   0004                     494 	.ds 1
   0005                     495 _write_byte_to_eeprom_addr_1_1:
   0005                     496 	.ds 2
   0007                     497 _read_byte_from_eeprom_addr_1_1:
   0007                     498 	.ds 2
                            499 ;--------------------------------------------------------
                            500 ; absolute external ram data
                            501 ;--------------------------------------------------------
                            502 	.area XABS    (ABS,XDATA)
                            503 ;--------------------------------------------------------
                            504 ; external initialized ram data
                            505 ;--------------------------------------------------------
                            506 	.area XISEG   (XDATA)
                            507 	.area HOME    (CODE)
                            508 	.area GSINIT0 (CODE)
                            509 	.area GSINIT1 (CODE)
                            510 	.area GSINIT2 (CODE)
                            511 	.area GSINIT3 (CODE)
                            512 	.area GSINIT4 (CODE)
                            513 	.area GSINIT5 (CODE)
                            514 	.area GSINIT  (CODE)
                            515 	.area GSFINAL (CODE)
                            516 	.area CSEG    (CODE)
                            517 ;--------------------------------------------------------
                            518 ; global & static initialisations
                            519 ;--------------------------------------------------------
                            520 	.area HOME    (CODE)
                            521 	.area GSINIT  (CODE)
                            522 	.area GSFINAL (CODE)
                            523 	.area GSINIT  (CODE)
                            524 ;--------------------------------------------------------
                            525 ; Home
                            526 ;--------------------------------------------------------
                            527 	.area HOME    (CODE)
                            528 	.area HOME    (CODE)
                            529 ;--------------------------------------------------------
                            530 ; code
                            531 ;--------------------------------------------------------
                            532 	.area CSEG    (CODE)
                            533 ;------------------------------------------------------------
                            534 ;Allocation info for local variables in function 'delay'
                            535 ;------------------------------------------------------------
                            536 ;d                         Allocated with name '_delay_d_1_1'
                            537 ;i                         Allocated with name '_delay_i_1_1'
                            538 ;------------------------------------------------------------
                            539 ;	i2c.c:13: void delay(unsigned int d)
                            540 ;	-----------------------------------------
                            541 ;	 function delay
                            542 ;	-----------------------------------------
   0000                     543 _delay:
                    0002    544 	ar2 = 0x02
                    0003    545 	ar3 = 0x03
                    0004    546 	ar4 = 0x04
                    0005    547 	ar5 = 0x05
                    0006    548 	ar6 = 0x06
                    0007    549 	ar7 = 0x07
                    0000    550 	ar0 = 0x00
                    0001    551 	ar1 = 0x01
                            552 ;	i2c.c:17: for(i=0;i<d;i++);
   0000 AA 83               553 	mov	r2,dph
   0002 E5 82               554 	mov	a,dpl
   0004 90s00r00            555 	mov	dptr,#_delay_d_1_1
   0007 F0                  556 	movx	@dptr,a
   0008 A3                  557 	inc	dptr
   0009 CA                  558 	xch	a,r2
   000A F0                  559 	movx	@dptr,a
   000B FB                  560 	mov	r3,a
   000C 7C 00               561 	mov	r4,#0x00
   000E 7D 00               562 	mov	r5,#0x00
   0010                     563 00101$:
   0010 C3                  564 	clr	c
   0011 EC                  565 	mov	a,r4
   0012 9A                  566 	subb	a,r2
   0013 ED                  567 	mov	a,r5
   0014 9B                  568 	subb	a,r3
   0015 50 07               569 	jnc	00105$
   0017 0C                  570 	inc	r4
   0018 BC 00 F5            571 	cjne	r4,#0x00,00101$
   001B 0D                  572 	inc	r5
   001C 80 F2               573 	sjmp	00101$
   001E                     574 00105$:
   001E 22                  575 	ret
                            576 ;------------------------------------------------------------
                            577 ;Allocation info for local variables in function 'InitI2c'
                            578 ;------------------------------------------------------------
                            579 ;------------------------------------------------------------
                            580 ;	i2c.c:25: void InitI2c(void)
                            581 ;	-----------------------------------------
                            582 ;	 function InitI2c
                            583 ;	-----------------------------------------
   001F                     584 _InitI2c:
                            585 ;	i2c.c:27: reset_eeprom();
   001F 12s02r16            586 	lcall	_reset_eeprom
                            587 ;	i2c.c:28: SDA_BUS = 1;
   0022 D2 92               588 	setb	_P1_2
                            589 ;	i2c.c:29: SCL_BUS = 1;
   0024 D2 91               590 	setb	_P1_1
   0026 22                  591 	ret
                            592 ;------------------------------------------------------------
                            593 ;Allocation info for local variables in function 'StartI2c'
                            594 ;------------------------------------------------------------
                            595 ;------------------------------------------------------------
                            596 ;	i2c.c:37: void StartI2c(void)
                            597 ;	-----------------------------------------
                            598 ;	 function StartI2c
                            599 ;	-----------------------------------------
   0027                     600 _StartI2c:
                            601 ;	i2c.c:39: SDA_BUS  = 1;
   0027 D2 92               602 	setb	_P1_2
                            603 ;	i2c.c:40: SCL_BUS  = 1;
   0029 D2 91               604 	setb	_P1_1
                            605 ;	i2c.c:41: delay(I2C_DELAY);
   002B 90 00 C8            606 	mov	dptr,#0x00C8
   002E 12s00r00            607 	lcall	_delay
                            608 ;	i2c.c:42: SDA_BUS  = 0;
   0031 C2 92               609 	clr	_P1_2
                            610 ;	i2c.c:43: delay(I2C_DELAY);
   0033 90 00 C8            611 	mov	dptr,#0x00C8
   0036 02s00r00            612 	ljmp	_delay
                            613 ;------------------------------------------------------------
                            614 ;Allocation info for local variables in function 'RepeatedStartI2c'
                            615 ;------------------------------------------------------------
                            616 ;------------------------------------------------------------
                            617 ;	i2c.c:54: void RepeatedStartI2c()
                            618 ;	-----------------------------------------
                            619 ;	 function RepeatedStartI2c
                            620 ;	-----------------------------------------
   0039                     621 _RepeatedStartI2c:
                            622 ;	i2c.c:56: SCL_BUS  = 0;
   0039 C2 91               623 	clr	_P1_1
                            624 ;	i2c.c:57: delay(I2C_DELAY/2);
   003B 90 00 64            625 	mov	dptr,#0x0064
   003E 12s00r00            626 	lcall	_delay
                            627 ;	i2c.c:58: SDA_BUS  = 1;
   0041 D2 92               628 	setb	_P1_2
                            629 ;	i2c.c:59: delay(I2C_DELAY/2);
   0043 90 00 64            630 	mov	dptr,#0x0064
   0046 12s00r00            631 	lcall	_delay
                            632 ;	i2c.c:60: SCL_BUS  = 1;
   0049 D2 91               633 	setb	_P1_1
                            634 ;	i2c.c:61: delay(I2C_DELAY/2);
   004B 90 00 64            635 	mov	dptr,#0x0064
   004E 12s00r00            636 	lcall	_delay
                            637 ;	i2c.c:62: SDA_BUS  = 0;
   0051 C2 92               638 	clr	_P1_2
                            639 ;	i2c.c:63: delay(I2C_DELAY);
   0053 90 00 C8            640 	mov	dptr,#0x00C8
   0056 02s00r00            641 	ljmp	_delay
                            642 ;------------------------------------------------------------
                            643 ;Allocation info for local variables in function 'StopI2c'
                            644 ;------------------------------------------------------------
                            645 ;------------------------------------------------------------
                            646 ;	i2c.c:73: void StopI2c(void)
                            647 ;	-----------------------------------------
                            648 ;	 function StopI2c
                            649 ;	-----------------------------------------
   0059                     650 _StopI2c:
                            651 ;	i2c.c:75: SCL_BUS  = 0;
   0059 C2 91               652 	clr	_P1_1
                            653 ;	i2c.c:76: delay(I2C_DELAY/2);
   005B 90 00 64            654 	mov	dptr,#0x0064
   005E 12s00r00            655 	lcall	_delay
                            656 ;	i2c.c:77: SDA_BUS  = 0;
   0061 C2 92               657 	clr	_P1_2
                            658 ;	i2c.c:78: delay(I2C_DELAY/2);
   0063 90 00 64            659 	mov	dptr,#0x0064
   0066 12s00r00            660 	lcall	_delay
                            661 ;	i2c.c:79: SCL_BUS  = 1;
   0069 D2 91               662 	setb	_P1_1
                            663 ;	i2c.c:80: delay(I2C_DELAY/2);
   006B 90 00 64            664 	mov	dptr,#0x0064
   006E 12s00r00            665 	lcall	_delay
                            666 ;	i2c.c:81: SDA_BUS  = 1;
   0071 D2 92               667 	setb	_P1_2
                            668 ;	i2c.c:82: delay(I2C_DELAY);
   0073 90 00 C8            669 	mov	dptr,#0x00C8
   0076 02s00r00            670 	ljmp	_delay
                            671 ;------------------------------------------------------------
                            672 ;Allocation info for local variables in function 'SendAckBit'
                            673 ;------------------------------------------------------------
                            674 ;------------------------------------------------------------
                            675 ;	i2c.c:92: void SendAckBit()
                            676 ;	-----------------------------------------
                            677 ;	 function SendAckBit
                            678 ;	-----------------------------------------
   0079                     679 _SendAckBit:
                            680 ;	i2c.c:94: SCL_BUS  = 0;
   0079 C2 91               681 	clr	_P1_1
                            682 ;	i2c.c:95: delay(I2C_DELAY/2);
   007B 90 00 64            683 	mov	dptr,#0x0064
   007E 12s00r00            684 	lcall	_delay
                            685 ;	i2c.c:96: SDA_BUS  = 0;
   0081 C2 92               686 	clr	_P1_2
                            687 ;	i2c.c:97: delay(I2C_DELAY/2);
   0083 90 00 64            688 	mov	dptr,#0x0064
   0086 12s00r00            689 	lcall	_delay
                            690 ;	i2c.c:98: SCL_BUS  = 1;
   0089 D2 91               691 	setb	_P1_1
                            692 ;	i2c.c:99: delay(I2C_DELAY);
   008B 90 00 C8            693 	mov	dptr,#0x00C8
   008E 02s00r00            694 	ljmp	_delay
                            695 ;------------------------------------------------------------
                            696 ;Allocation info for local variables in function 'SendNackBit'
                            697 ;------------------------------------------------------------
                            698 ;------------------------------------------------------------
                            699 ;	i2c.c:109: void SendNackBit(void)
                            700 ;	-----------------------------------------
                            701 ;	 function SendNackBit
                            702 ;	-----------------------------------------
   0091                     703 _SendNackBit:
                            704 ;	i2c.c:111: SCL_BUS  = 0;
   0091 C2 91               705 	clr	_P1_1
                            706 ;	i2c.c:112: delay(I2C_DELAY/2);
   0093 90 00 64            707 	mov	dptr,#0x0064
   0096 12s00r00            708 	lcall	_delay
                            709 ;	i2c.c:113: SDA_BUS  = 1;
   0099 D2 92               710 	setb	_P1_2
                            711 ;	i2c.c:114: delay(I2C_DELAY/2);
   009B 90 00 64            712 	mov	dptr,#0x0064
   009E 12s00r00            713 	lcall	_delay
                            714 ;	i2c.c:115: SCL_BUS  = 1;
   00A1 D2 91               715 	setb	_P1_1
                            716 ;	i2c.c:116: delay(I2C_DELAY);
   00A3 90 00 C8            717 	mov	dptr,#0x00C8
   00A6 02s00r00            718 	ljmp	_delay
                            719 ;------------------------------------------------------------
                            720 ;Allocation info for local variables in function 'write_i2c'
                            721 ;------------------------------------------------------------
                            722 ;byte                      Allocated with name '_write_i2c_byte_1_1'
                            723 ;i                         Allocated with name '_write_i2c_i_1_1'
                            724 ;------------------------------------------------------------
                            725 ;	i2c.c:126: bit write_i2c(unsigned char byte)
                            726 ;	-----------------------------------------
                            727 ;	 function write_i2c
                            728 ;	-----------------------------------------
   00A9                     729 _write_i2c:
   00A9 E5 82               730 	mov	a,dpl
                            731 ;	i2c.c:129: for(i=0;i<8;i++)
   00AB 90s00r02            732 	mov	dptr,#_write_i2c_byte_1_1
   00AE F0                  733 	movx	@dptr,a
   00AF FA                  734 	mov	r2,a
   00B0 7B 00               735 	mov	r3,#0x00
   00B2                     736 00107$:
   00B2 BB 08 00            737 	cjne	r3,#0x08,00119$
   00B5                     738 00119$:
   00B5 50 46               739 	jnc	00110$
                            740 ;	i2c.c:131: SCL_BUS  = 0;
   00B7 C2 91               741 	clr	_P1_1
                            742 ;	i2c.c:132: delay(I2C_DELAY);
   00B9 90 00 C8            743 	mov	dptr,#0x00C8
   00BC C0 02               744 	push	ar2
   00BE C0 03               745 	push	ar3
   00C0 12s00r00            746 	lcall	_delay
   00C3 D0 03               747 	pop	ar3
   00C5 D0 02               748 	pop	ar2
                            749 ;	i2c.c:133: if((byte<<i)&0x80)  //
   00C7 8A 04               750 	mov	ar4,r2
   00C9 7D 00               751 	mov	r5,#0x00
   00CB 8B F0               752 	mov	b,r3
   00CD 05 F0               753 	inc	b
   00CF 80 06               754 	sjmp	00122$
   00D1                     755 00121$:
   00D1 EC                  756 	mov	a,r4
   00D2 2C                  757 	add	a,r4
   00D3 FC                  758 	mov	r4,a
   00D4 ED                  759 	mov	a,r5
   00D5 33                  760 	rlc	a
   00D6 FD                  761 	mov	r5,a
   00D7                     762 00122$:
   00D7 D5 F0 F7            763 	djnz	b,00121$
   00DA EC                  764 	mov	a,r4
   00DB 30 E7 04            765 	jnb	acc.7,00102$
                            766 ;	i2c.c:134: SDA_BUS  = 1;
   00DE D2 92               767 	setb	_P1_2
   00E0 80 02               768 	sjmp	00103$
   00E2                     769 00102$:
                            770 ;	i2c.c:136: SDA_BUS  = 0;
   00E2 C2 92               771 	clr	_P1_2
   00E4                     772 00103$:
                            773 ;	i2c.c:137: delay(I2C_DELAY/2);
   00E4 90 00 64            774 	mov	dptr,#0x0064
   00E7 C0 02               775 	push	ar2
   00E9 C0 03               776 	push	ar3
   00EB 12s00r00            777 	lcall	_delay
                            778 ;	i2c.c:138: SCL_BUS  = 1;
   00EE D2 91               779 	setb	_P1_1
                            780 ;	i2c.c:139: delay(I2C_DELAY);
   00F0 90 00 C8            781 	mov	dptr,#0x00C8
   00F3 12s00r00            782 	lcall	_delay
   00F6 D0 03               783 	pop	ar3
   00F8 D0 02               784 	pop	ar2
                            785 ;	i2c.c:129: for(i=0;i<8;i++)
   00FA 0B                  786 	inc	r3
   00FB 80 B5               787 	sjmp	00107$
   00FD                     788 00110$:
                            789 ;	i2c.c:142: SCL_BUS  = 0;
   00FD C2 91               790 	clr	_P1_1
                            791 ;	i2c.c:143: SDA_BUS  = 1;
   00FF D2 92               792 	setb	_P1_2
                            793 ;	i2c.c:144: delay(I2C_DELAY);
   0101 90 00 C8            794 	mov	dptr,#0x00C8
   0104 12s00r00            795 	lcall	_delay
                            796 ;	i2c.c:145: SCL_BUS  = 1;
   0107 D2 91               797 	setb	_P1_1
                            798 ;	i2c.c:146: delay(I2C_DELAY);
   0109 90 00 C8            799 	mov	dptr,#0x00C8
   010C 12s00r00            800 	lcall	_delay
                            801 ;	i2c.c:147: while(SDA_BUS != ACK_BIT);
   010F                     802 00104$:
   010F 20 92 FD            803 	jb	_P1_2,00104$
                            804 ;	i2c.c:148: return SDA_BUS;
   0112 A2 92               805 	mov	c,_P1_2
   0114 22                  806 	ret
                            807 ;------------------------------------------------------------
                            808 ;Allocation info for local variables in function 'read_i2c'
                            809 ;------------------------------------------------------------
                            810 ;i                         Allocated with name '_read_i2c_i_1_1'
                            811 ;d                         Allocated with name '_read_i2c_d_1_1'
                            812 ;rxdata                    Allocated with name '_read_i2c_rxdata_1_1'
                            813 ;------------------------------------------------------------
                            814 ;	i2c.c:158: unsigned char read_i2c(void)
                            815 ;	-----------------------------------------
                            816 ;	 function read_i2c
                            817 ;	-----------------------------------------
   0115                     818 _read_i2c:
                            819 ;	i2c.c:160: unsigned char i,d, rxdata=0;
   0115 90s00r03            820 	mov	dptr,#_read_i2c_rxdata_1_1
   0118 E4                  821 	clr	a
   0119 F0                  822 	movx	@dptr,a
                            823 ;	i2c.c:161: for(i=0;i<8;i++)
   011A 7A 00               824 	mov	r2,#0x00
   011C                     825 00101$:
   011C BA 08 00            826 	cjne	r2,#0x08,00110$
   011F                     827 00110$:
   011F 50 3F               828 	jnc	00104$
                            829 ;	i2c.c:164: SCL_BUS  = 0;
   0121 C2 91               830 	clr	_P1_1
                            831 ;	i2c.c:165: SDA_BUS  = 1;
   0123 D2 92               832 	setb	_P1_2
                            833 ;	i2c.c:166: delay(I2C_DELAY);
   0125 90 00 C8            834 	mov	dptr,#0x00C8
   0128 C0 02               835 	push	ar2
   012A 12s00r00            836 	lcall	_delay
                            837 ;	i2c.c:167: SCL_BUS  = 1;
   012D D2 91               838 	setb	_P1_1
                            839 ;	i2c.c:168: delay(I2C_DELAY);
   012F 90 00 C8            840 	mov	dptr,#0x00C8
   0132 12s00r00            841 	lcall	_delay
   0135 D0 02               842 	pop	ar2
                            843 ;	i2c.c:169: d=SDA_BUS;              //
   0137 A2 92               844 	mov	c,_P1_2
   0139 E4                  845 	clr	a
   013A 33                  846 	rlc	a
   013B FB                  847 	mov	r3,a
                            848 ;	i2c.c:170: rxdata=rxdata|(d<<7-i); //
   013C 74 07               849 	mov	a,#0x07
   013E C3                  850 	clr	c
   013F 9A                  851 	subb	a,r2
   0140 F5 F0               852 	mov	b,a
   0142 05 F0               853 	inc	b
   0144 EB                  854 	mov	a,r3
   0145 80 02               855 	sjmp	00114$
   0147                     856 00112$:
   0147 25 E0               857 	add	a,acc
   0149                     858 00114$:
   0149 D5 F0 FB            859 	djnz	b,00112$
   014C FB                  860 	mov	r3,a
   014D 90s00r03            861 	mov	dptr,#_read_i2c_rxdata_1_1
   0150 E0                  862 	movx	a,@dptr
   0151 4B                  863 	orl	a,r3
   0152 F0                  864 	movx	@dptr,a
                            865 ;	i2c.c:171: delay(I2C_DELAY);
   0153 90 00 C8            866 	mov	dptr,#0x00C8
   0156 C0 02               867 	push	ar2
   0158 12s00r00            868 	lcall	_delay
   015B D0 02               869 	pop	ar2
                            870 ;	i2c.c:161: for(i=0;i<8;i++)
   015D 0A                  871 	inc	r2
   015E 80 BC               872 	sjmp	00101$
   0160                     873 00104$:
                            874 ;	i2c.c:173: return rxdata;
   0160 90s00r03            875 	mov	dptr,#_read_i2c_rxdata_1_1
   0163 E0                  876 	movx	a,@dptr
   0164 F5 82               877 	mov	dpl,a
   0166 22                  878 	ret
                            879 ;------------------------------------------------------------
                            880 ;Allocation info for local variables in function 'write_byte_to_eeprom'
                            881 ;------------------------------------------------------------
                            882 ;byte                      Allocated with name '_write_byte_to_eeprom_PARM_2'
                            883 ;addr                      Allocated with name '_write_byte_to_eeprom_addr_1_1'
                            884 ;------------------------------------------------------------
                            885 ;	i2c.c:182: void write_byte_to_eeprom(unsigned int addr,unsigned char byte)
                            886 ;	-----------------------------------------
                            887 ;	 function write_byte_to_eeprom
                            888 ;	-----------------------------------------
   0167                     889 _write_byte_to_eeprom:
   0167 AA 83               890 	mov	r2,dph
   0169 E5 82               891 	mov	a,dpl
   016B 90s00r05            892 	mov	dptr,#_write_byte_to_eeprom_addr_1_1
   016E F0                  893 	movx	@dptr,a
   016F A3                  894 	inc	dptr
   0170 EA                  895 	mov	a,r2
   0171 F0                  896 	movx	@dptr,a
                            897 ;	i2c.c:184: StartI2c();
   0172 12s00r27            898 	lcall	_StartI2c
                            899 ;	i2c.c:185: write_i2c(device_addr|0 | ((unsigned char)((addr & 0x0700) >> 7))); //
   0175 90s00r05            900 	mov	dptr,#_write_byte_to_eeprom_addr_1_1
   0178 E0                  901 	movx	a,@dptr
   0179 FA                  902 	mov	r2,a
   017A A3                  903 	inc	dptr
   017B E0                  904 	movx	a,@dptr
   017C FB                  905 	mov	r3,a
   017D 7C 00               906 	mov	r4,#0x00
   017F 74 07               907 	mov	a,#0x07
   0181 5B                  908 	anl	a,r3
   0182 A2 E7               909 	mov	c,acc.7
   0184 CC                  910 	xch	a,r4
   0185 33                  911 	rlc	a
   0186 CC                  912 	xch	a,r4
   0187 33                  913 	rlc	a
   0188 CC                  914 	xch	a,r4
   0189 54 01               915 	anl	a,#0x01
   018B 43 04 A0            916 	orl	ar4,#0xA0
   018E 8C 82               917 	mov	dpl,r4
   0190 C0 02               918 	push	ar2
   0192 C0 03               919 	push	ar3
   0194 12s00rA9            920 	lcall	_write_i2c
   0197 D0 03               921 	pop	ar3
   0199 D0 02               922 	pop	ar2
                            923 ;	i2c.c:187: write_i2c(addr & 0x00FF);
   019B 8A 82               924 	mov	dpl,r2
   019D 12s00rA9            925 	lcall	_write_i2c
                            926 ;	i2c.c:188: write_i2c(byte);
   01A0 90s00r04            927 	mov	dptr,#_write_byte_to_eeprom_PARM_2
   01A3 E0                  928 	movx	a,@dptr
   01A4 F5 82               929 	mov	dpl,a
   01A6 12s00rA9            930 	lcall	_write_i2c
                            931 ;	i2c.c:189: StopI2c();
   01A9 02s00r59            932 	ljmp	_StopI2c
                            933 ;------------------------------------------------------------
                            934 ;Allocation info for local variables in function 'read_byte_from_eeprom'
                            935 ;------------------------------------------------------------
                            936 ;addr                      Allocated with name '_read_byte_from_eeprom_addr_1_1'
                            937 ;rxdata                    Allocated with name '_read_byte_from_eeprom_rxdata_1_1'
                            938 ;------------------------------------------------------------
                            939 ;	i2c.c:198: unsigned char read_byte_from_eeprom(unsigned int addr)
                            940 ;	-----------------------------------------
                            941 ;	 function read_byte_from_eeprom
                            942 ;	-----------------------------------------
   01AC                     943 _read_byte_from_eeprom:
   01AC AA 83               944 	mov	r2,dph
   01AE E5 82               945 	mov	a,dpl
   01B0 90s00r07            946 	mov	dptr,#_read_byte_from_eeprom_addr_1_1
   01B3 F0                  947 	movx	@dptr,a
   01B4 A3                  948 	inc	dptr
   01B5 EA                  949 	mov	a,r2
   01B6 F0                  950 	movx	@dptr,a
                            951 ;	i2c.c:201: StartI2c();
   01B7 12s00r27            952 	lcall	_StartI2c
                            953 ;	i2c.c:202: write_i2c(device_addr|0 | ((addr & 0x0700) >> 7));
   01BA 90s00r07            954 	mov	dptr,#_read_byte_from_eeprom_addr_1_1
   01BD E0                  955 	movx	a,@dptr
   01BE FA                  956 	mov	r2,a
   01BF A3                  957 	inc	dptr
   01C0 E0                  958 	movx	a,@dptr
   01C1 FB                  959 	mov	r3,a
   01C2 7C 00               960 	mov	r4,#0x00
   01C4 74 07               961 	mov	a,#0x07
   01C6 5B                  962 	anl	a,r3
   01C7 A2 E7               963 	mov	c,acc.7
   01C9 CC                  964 	xch	a,r4
   01CA 33                  965 	rlc	a
   01CB CC                  966 	xch	a,r4
   01CC 33                  967 	rlc	a
   01CD CC                  968 	xch	a,r4
   01CE 54 01               969 	anl	a,#0x01
   01D0 FD                  970 	mov	r5,a
   01D1 74 A0               971 	mov	a,#0xA0
   01D3 4C                  972 	orl	a,r4
   01D4 FE                  973 	mov	r6,a
   01D5 8D 07               974 	mov	ar7,r5
   01D7 8E 82               975 	mov	dpl,r6
   01D9 C0 02               976 	push	ar2
   01DB C0 03               977 	push	ar3
   01DD C0 04               978 	push	ar4
   01DF C0 05               979 	push	ar5
   01E1 12s00rA9            980 	lcall	_write_i2c
   01E4 D0 05               981 	pop	ar5
   01E6 D0 04               982 	pop	ar4
   01E8 D0 03               983 	pop	ar3
   01EA D0 02               984 	pop	ar2
                            985 ;	i2c.c:203: write_i2c(addr & 0x00FF);
   01EC 8A 82               986 	mov	dpl,r2
   01EE C0 04               987 	push	ar4
   01F0 C0 05               988 	push	ar5
   01F2 12s00rA9            989 	lcall	_write_i2c
                            990 ;	i2c.c:204: RepeatedStartI2c();
   01F5 12s00r39            991 	lcall	_RepeatedStartI2c
   01F8 D0 05               992 	pop	ar5
   01FA D0 04               993 	pop	ar4
                            994 ;	i2c.c:205: write_i2c(device_addr|1 | ((unsigned char)((addr & 0x0700) >> 7)));
   01FC 43 04 A1            995 	orl	ar4,#0xA1
   01FF 8C 82               996 	mov	dpl,r4
   0201 12s00rA9            997 	lcall	_write_i2c
                            998 ;	i2c.c:206: rxdata=read_i2c();
   0204 12s01r15            999 	lcall	_read_i2c
   0207 AA 82              1000 	mov	r2,dpl
                           1001 ;	i2c.c:207: SendNackBit();
   0209 C0 02              1002 	push	ar2
   020B 12s00r91           1003 	lcall	_SendNackBit
                           1004 ;	i2c.c:208: StopI2c();
   020E 12s00r59           1005 	lcall	_StopI2c
   0211 D0 02              1006 	pop	ar2
                           1007 ;	i2c.c:210: return rxdata;
   0213 8A 82              1008 	mov	dpl,r2
   0215 22                 1009 	ret
                           1010 ;------------------------------------------------------------
                           1011 ;Allocation info for local variables in function 'reset_eeprom'
                           1012 ;------------------------------------------------------------
                           1013 ;i                         Allocated with name '_reset_eeprom_i_1_1'
                           1014 ;------------------------------------------------------------
                           1015 ;	i2c.c:213: void reset_eeprom()
                           1016 ;	-----------------------------------------
                           1017 ;	 function reset_eeprom
                           1018 ;	-----------------------------------------
   0216                    1019 _reset_eeprom:
                           1020 ;	i2c.c:216: StartI2c();
   0216 12s00r27           1021 	lcall	_StartI2c
                           1022 ;	i2c.c:217: delay(I2C_DELAY/2);
   0219 90 00 64           1023 	mov	dptr,#0x0064
   021C 12s00r00           1024 	lcall	_delay
                           1025 ;	i2c.c:218: SCL_BUS = 0;
   021F C2 91              1026 	clr	_P1_1
                           1027 ;	i2c.c:219: SDA_BUS = 1;
   0221 D2 92              1028 	setb	_P1_2
                           1029 ;	i2c.c:220: while (i < 9)
   0223 7A 00              1030 	mov	r2,#0x00
   0225 7B 00              1031 	mov	r3,#0x00
   0227                    1032 00101$:
   0227 C3                 1033 	clr	c
   0228 EA                 1034 	mov	a,r2
   0229 94 09              1035 	subb	a,#0x09
   022B EB                 1036 	mov	a,r3
   022C 64 80              1037 	xrl	a,#0x80
   022E 94 80              1038 	subb	a,#0x80
   0230 50 1F              1039 	jnc	00103$
                           1040 ;	i2c.c:222: SCL_BUS = 1;
   0232 D2 91              1041 	setb	_P1_1
                           1042 ;	i2c.c:223: delay(I2C_DELAY/2);
   0234 90 00 64           1043 	mov	dptr,#0x0064
   0237 C0 02              1044 	push	ar2
   0239 C0 03              1045 	push	ar3
   023B 12s00r00           1046 	lcall	_delay
                           1047 ;	i2c.c:224: SCL_BUS = 0;
   023E C2 91              1048 	clr	_P1_1
                           1049 ;	i2c.c:225: delay(I2C_DELAY/2);
   0240 90 00 64           1050 	mov	dptr,#0x0064
   0243 12s00r00           1051 	lcall	_delay
   0246 D0 03              1052 	pop	ar3
   0248 D0 02              1053 	pop	ar2
                           1054 ;	i2c.c:226: i++;
   024A 0A                 1055 	inc	r2
   024B BA 00 D9           1056 	cjne	r2,#0x00,00101$
   024E 0B                 1057 	inc	r3
   024F 80 D6              1058 	sjmp	00101$
   0251                    1059 00103$:
                           1060 ;	i2c.c:228: StartI2c();
   0251 12s00r27           1061 	lcall	_StartI2c
                           1062 ;	i2c.c:229: StopI2c();
   0254 02s00r59           1063 	ljmp	_StopI2c
                           1064 	.area CSEG    (CODE)
                           1065 	.area CONST   (CODE)
                           1066 	.area XINIT   (CODE)
                           1067 	.area CABS    (ABS,CODE)
