ASxxxx Linker V02.00 + NoICE + sdld,  page 1.
Hexadecimal

Area                               Addr   Size   Decimal Bytes (Attributes)
--------------------------------   ----   ----   ------- ----- ------------
CABS                               0000   0000 =      0. bytes (ABS,CON,CODE)

      Value  Global                              Global Defined In Module
      -----  ---------------------------------   ------------------------
       0C:  0000  l_CABS                           
       0C:  0000  l_GSINIT                         
       0C:  0000  l_GSINIT1                        
       0C:  0000  l_GSINIT5                        
       0C:  0000  l_IABS                           
       0C:  0000  l_ISEG                           
       0C:  0000  l_OSEG                           
       0C:  0000  l_PSEG                           
       0C:  0000  l_REG_BANK_1                     
       0C:  0000  l_REG_BANK_2                     
       0C:  0000  l_REG_BANK_3                     
       0C:  0000  l_RSEG                           
       0C:  0000  l_RSEG0                          
       0C:  0000  l_RSEG1                          
       0C:  0000  l_XABS                           
       0C:  0000  l__CODE                          
       0C:  0000  s_BSEG                           
       0C:  0000  s_CABS                           
       0C:  0000  s_DSEG                           
       0C:  0000  s_HOME                           
       0C:  0000  s_IABS                           
       0C:  0000  s_ISEG                           
       0C:  0000  s_PSEG                           
       0C:  0000  s_REG_BANK_0                     
       0C:  0000  s_RSEG                           
       0C:  0000  s_RSEG0                          
       0C:  0000  s_RSEG1                          
       0C:  0000  s_XABS                           
       0C:  0000  s_XSEG                           
       0C:  0001  l_BIT_BANK                       
       0C:  0002  l_BSEG_BYTES                     
       0C:  0003  l_GSFINAL                        
       0C:  0003  l_GSINIT0                        
       0C:  0008  l_REG_BANK_0                     
       0C:  0008  s_REG_BANK_1                     
       0C:  000A  l_BSEG                           
       0C:  000A  l_GSINIT2                        
       0C:  0010  s_REG_BANK_2                     
       0C:  0013  l_HOME                           
       0C:  0013  s_GSINIT0                        
       0C:  0014  l_XINIT                          
       0C:  0014  l_XISEG                          
       0C:  0016  s_GSINIT1                        
       0C:  0016  s_GSINIT2                        
       0C:  0018  s_REG_BANK_3                     
       0C:  0020  s_BSEG_BYTES                     
       0C:  0020  s_GSINIT3                        
       0C:  0020  s__CODE                          
       0C:  0022  l_GSINIT3                        
       0C:  0022  s_BIT_BANK                       
ASxxxx Linker V02.00 + NoICE + sdld,  page 2.
Hexadecimal

Area                               Addr   Size   Decimal Bytes (Attributes)
--------------------------------   ----   ----   ------- ----- ------------
CABS                               0000   0000 =      0. bytes (ABS,CON,CODE)

      Value  Global                              Global Defined In Module
      -----  ---------------------------------   ------------------------
       0C:  0022  s_OSEG                           
       0C:  0023  s_SSEG                           
       0C:  002A  l_GSINIT4                        
       0C:  0042  s_GSINIT4                        
       0C:  006C  s_GSFINAL                        
       0C:  006C  s_GSINIT                         
       0C:  006C  s_GSINIT5                        
       0C:  006F  s_CSEG                           
       0C:  0071  l_DSEG                           
       0C:  00BA  l_XSEG                           
       0C:  00BA  s_XISEG                          
       0C:  00DD  l_SSEG                           
       0C:  0100  l_IRAM                           
       0C:  0113  l_CONST                          
       0C:  1CA1  l_CSEG                           
       0C:  1D10  s_CONST                          
       0C:  1E23  s_XINIT                          

ASxxxx Linker V02.00 + NoICE + sdld,  page 3.
Hexadecimal

Area                               Addr   Size   Decimal Bytes (Attributes)
--------------------------------   ----   ----   ------- ----- ------------
XABS                               0000   0000 =      0. bytes (ABS,CON,XDATA)

      Value  Global                              Global Defined In Module
      -----  ---------------------------------   ------------------------
ASxxxx Linker V02.00 + NoICE + sdld,  page 4.
Hexadecimal

Area                               Addr   Size   Decimal Bytes (Attributes)
--------------------------------   ----   ----   ------- ----- ------------
IABS                               0000   0000 =      0. bytes (ABS,CON)

      Value  Global                              Global Defined In Module
      -----  ---------------------------------   ------------------------
ASxxxx Linker V02.00 + NoICE + sdld,  page 5.
Hexadecimal

Area                               Addr   Size   Decimal Bytes (Attributes)
--------------------------------   ----   ----   ------- ----- ------------
RSEG1                              0000   0000 =      0. bytes (ABS,CON)

      Value  Global                              Global Defined In Module
      -----  ---------------------------------   ------------------------
ASxxxx Linker V02.00 + NoICE + sdld,  page 6.
Hexadecimal

Area                               Addr   Size   Decimal Bytes (Attributes)
--------------------------------   ----   ----   ------- ----- ------------
RSEG0                              0000   0000 =      0. bytes (ABS,CON)

      Value  Global                              Global Defined In Module
      -----  ---------------------------------   ------------------------
ASxxxx Linker V02.00 + NoICE + sdld,  page 7.
Hexadecimal

Area                               Addr   Size   Decimal Bytes (Attributes)
--------------------------------   ----   ----   ------- ----- ------------
RSEG                               0000   0000 =      0. bytes (ABS,CON)

      Value  Global                              Global Defined In Module
      -----  ---------------------------------   ------------------------
ASxxxx Linker V02.00 + NoICE + sdld,  page 8.
Hexadecimal

Area                               Addr   Size   Decimal Bytes (Attributes)
--------------------------------   ----   ----   ------- ----- ------------
.	.ABS.                            0000   0000 =      0. bytes (ABS,CON)

      Value  Global                              Global Defined In Module
      -----  ---------------------------------   ------------------------
            0000  .__.ABS.                         
            0080  _P0                              
            0080  _P0_0                            
            0081  _P0_1                            
            0081  _SP                              
            0082  _DP0L                            
            0082  _DPL                             
            0082  _P0_2                            
            0083  _DP0H                            
            0083  _DPH                             
            0083  _P0_3                            
            0084  _P0_4                            
            0085  _P0_5                            
            0086  _P0_6                            
            0087  _P0_7                            
            0087  _PCON                            
            0088  _IT0                             
            0088  _TCON                            
            0089  _IE0                             
            0089  _TMOD                            
            008A  _IT1                             
            008A  _TL0                             
            008B  _IE1                             
            008B  _TL1                             
            008C  _TH0                             
            008C  _TR0                             
            008D  _TF0                             
            008D  _TH1                             
            008E  _AUXR                            
            008E  _TR1                             
            008F  _CKCON0                          
            008F  _TF1                             
            0090  _P1                              
            0090  _P1_0                            
            0091  _P1_1                            
            0092  _P1_2                            
            0093  _P1_3                            
            0094  _P1_4                            
            0095  _P1_5                            
            0096  _P1_6                            
            0097  _CKRL                            
            0097  _P1_7                            
            0098  _RI                              
            0098  _SCON                            
            0099  _SBUF                            
            0099  _SBUF0                           
            0099  _TI                              
            009A  _BRL                             
            009A  _RB8                             
            009B  _BDRCON                          
ASxxxx Linker V02.00 + NoICE + sdld,  page 9.
Hexadecimal

Area                               Addr   Size   Decimal Bytes (Attributes)
--------------------------------   ----   ----   ------- ----- ------------
.	.ABS.                            0000   0000 =      0. bytes (ABS,CON)

      Value  Global                              Global Defined In Module
      -----  ---------------------------------   ------------------------
            009B  _TB8                             
            009C  _KBLS                            
            009C  _REN                             
            009D  _KBE                             
            009D  _SM2                             
            009E  _KBF                             
            009E  _SM1                             
            009F  _SM0                             
            00A0  _P2                              
            00A0  _P2_0                            
            00A0  __XPAGE                          
            00A1  _P2_1                            
            00A2  _AUXR1                           
            00A2  _P2_2                            
            00A3  _P2_3                            
            00A4  _P2_4                            
            00A5  _P2_5                            
            00A6  _P2_6                            
            00A6  _WDTRST                          
            00A7  _P2_7                            
            00A7  _WDTPRG                          
            00A8  _EX0                             
            00A8  _IE                              
            00A8  _IEN0                            
            00A9  _ET0                             
            00A9  _SADDR                           
            00AA  _EX1                             
            00AB  _ET1                             
            00AC  _ES                              
            00AD  _ET2                             
            00AE  _EC                              
            00AF  _CKCON1                          
            00AF  _EA                              
            00B0  _P3                              
            00B0  _P3_0                            
            00B0  _RXD                             
            00B0  _RXD0                            
            00B1  _IEN1                            
            00B1  _P3_1                            
            00B1  _TXD                             
            00B1  _TXD0                            
            00B2  _INT0                            
            00B2  _IPL1                            
            00B2  _P3_2                            
            00B3  _INT1                            
            00B3  _IPH1                            
            00B3  _P3_3                            
            00B4  _P3_4                            
            00B4  _T0                              
            00B5  _P3_5                            
            00B5  _T1                              
ASxxxx Linker V02.00 + NoICE + sdld,  page 10.
Hexadecimal

Area                               Addr   Size   Decimal Bytes (Attributes)
--------------------------------   ----   ----   ------- ----- ------------
.	.ABS.                            0000   0000 =      0. bytes (ABS,CON)

      Value  Global                              Global Defined In Module
      -----  ---------------------------------   ------------------------
            00B6  _P3_6                            
            00B6  _WR                              
            00B7  _IPH0                            
            00B7  _P3_7                            
            00B7  _RD                              
            00B8  _IP                              
            00B8  _IPL0                            
            00B8  _PX0                             
            00B8  _PX0L                            
            00B9  _PT0                             
            00B9  _PT0L                            
            00B9  _SADEN                           
            00BA  _PX1                             
            00BA  _PX1L                            
            00BB  _PT1                             
            00BB  _PT1L                            
            00BC  _PLS                             
            00BC  _PS                              
            00BD  _PT2                             
            00BD  _PT2L                            
            00BE  _PPCL                            
            00C0  _P4                              
            00C0  _P4_0                            
            00C1  _P4_1                            
            00C2  _P4_2                            
            00C3  _P4_3                            
            00C3  _SPCON                           
            00C4  _P4_4                            
            00C4  _SPSTA                           
            00C5  _P4_5                            
            00C5  _SPDAT                           
            00C6  _P4_6                            
            00C7  _P4_7                            
            00C8  _CP_RL2                          
            00C8  _T2CON                           
            00C8  _T2CON_0                         
            00C9  _C_T2                            
            00C9  _T2CON_1                         
            00C9  _T2MOD                           
            00CA  _RCAP2L                          
            00CA  _T2CON_2                         
            00CA  _TR2                             
            00CB  _EXEN2                           
            00CB  _RCAP2H                          
            00CB  _T2CON_3                         
            00CC  _T2CON_4                         
            00CC  _TCLK                            
            00CC  _TL2                             
            00CD  _RCLK                            
            00CD  _T2CON_5                         
            00CD  _TH2                             
ASxxxx Linker V02.00 + NoICE + sdld,  page 11.
Hexadecimal

Area                               Addr   Size   Decimal Bytes (Attributes)
--------------------------------   ----   ----   ------- ----- ------------
.	.ABS.                            0000   0000 =      0. bytes (ABS,CON)

      Value  Global                              Global Defined In Module
      -----  ---------------------------------   ------------------------
            00CE  _EXF2                            
            00CE  _T2CON_6                         
            00CF  _T2CON_7                         
            00CF  _TF2                             
            00D0  _P                               
            00D0  _PSW                             
            00D1  _F1                              
            00D2  _EECON                           
            00D2  _OV                              
            00D3  _RS0                             
            00D4  _RS1                             
            00D5  _F0                              
            00D6  _AC                              
            00D7  _CY                              
            00D8  _CCF0                            
            00D8  _CCON                            
            00D9  _CCF1                            
            00D9  _CMOD                            
            00DA  _CCAPM0                          
            00DA  _CCF2                            
            00DB  _CCAPM1                          
            00DB  _CCF3                            
            00DC  _CCAPM2                          
            00DC  _CCF4                            
            00DD  _CCAPM3                          
            00DE  _CCAPM4                          
            00DE  _CR                              
            00DF  _CF                              
            00E0  _ACC                             
            00E8  _P5                              
            00E8  _P5_0                            
            00E9  _CL                              
            00E9  _P5_1                            
            00EA  _CCAP0L                          
            00EA  _P5_2                            
            00EB  _CCAP1L                          
            00EB  _P5_3                            
            00EC  _CCAP2L                          
            00EC  _P5_4                            
            00ED  _CCAP3L                          
            00ED  _P5_5                            
            00EE  _CCAP4L                          
            00EE  _P5_6                            
            00EF  _P5_7                            
            00F0  _B                               
            00F0  _BREG_F0                         
            00F1  _BREG_F1                         
            00F2  _BREG_F2                         
            00F3  _BREG_F3                         
            00F4  _BREG_F4                         
            00F5  _BREG_F5                         
ASxxxx Linker V02.00 + NoICE + sdld,  page 12.
Hexadecimal

Area                               Addr   Size   Decimal Bytes (Attributes)
--------------------------------   ----   ----   ------- ----- ------------
.	.ABS.                            0000   0000 =      0. bytes (ABS,CON)

      Value  Global                              Global Defined In Module
      -----  ---------------------------------   ------------------------
            00F5  _B_5                             
            00F6  _BREG_F6                         
            00F6  _B_6                             
            00F7  _BREG_F7                         
            00F7  _B_7                             
            00F9  _CH                              
            00FA  _CCAP0H                          
            00FB  _CCAP1H                          
            00FC  _CCAP2H                          
            00FD  _CCAP3H                          
            00FE  _CCAP4H                          
            E000  _lcd_cmd_wr                      
            E100  _lcd_data_wr                     
            E200  _lcd_cmd_r                       
            E300  _lcd_data_read                   

ASxxxx Linker V02.00 + NoICE + sdld,  page 13.
Hexadecimal

Area                               Addr   Size   Decimal Bytes (Attributes)
--------------------------------   ----   ----   ------- ----- ------------
BSEG_BYTES                         0020   0002 =      2. bytes (REL,CON)

      Value  Global                              Global Defined In Module
      -----  ---------------------------------   ------------------------
ASxxxx Linker V02.00 + NoICE + sdld,  page 14.
Hexadecimal

Area                               Addr   Size   Decimal Bytes (Attributes)
--------------------------------   ----   ----   ------- ----- ------------
_CODE                              0020   0000 =      0. bytes (REL,CON)

      Value  Global                              Global Defined In Module
      -----  ---------------------------------   ------------------------
ASxxxx Linker V02.00 + NoICE + sdld,  page 15.
Hexadecimal

Area                               Addr   Size   Decimal Bytes (Attributes)
--------------------------------   ----   ----   ------- ----- ------------
REG_BANK_0                         0000   0008 =      8. bytes (REL,OVR)

      Value  Global                              Global Defined In Module
      -----  ---------------------------------   ------------------------
ASxxxx Linker V02.00 + NoICE + sdld,  page 16.
Hexadecimal

Area                               Addr   Size   Decimal Bytes (Attributes)
--------------------------------   ----   ----   ------- ----- ------------
REG_BANK_1                         0008   0000 =      0. bytes (REL,OVR)

      Value  Global                              Global Defined In Module
      -----  ---------------------------------   ------------------------
ASxxxx Linker V02.00 + NoICE + sdld,  page 17.
Hexadecimal

Area                               Addr   Size   Decimal Bytes (Attributes)
--------------------------------   ----   ----   ------- ----- ------------
REG_BANK_2                         0010   0000 =      0. bytes (REL,OVR)

      Value  Global                              Global Defined In Module
      -----  ---------------------------------   ------------------------
ASxxxx Linker V02.00 + NoICE + sdld,  page 18.
Hexadecimal

Area                               Addr   Size   Decimal Bytes (Attributes)
--------------------------------   ----   ----   ------- ----- ------------
REG_BANK_3                         0018   0000 =      0. bytes (REL,OVR)

      Value  Global                              Global Defined In Module
      -----  ---------------------------------   ------------------------
ASxxxx Linker V02.00 + NoICE + sdld,  page 19.
Hexadecimal

Area                               Addr   Size   Decimal Bytes (Attributes)
--------------------------------   ----   ----   ------- ----- ------------
BSEG                               0000   000A =     10. bytes (REL,CON,BIT)

      Value  Global                              Global Defined In Module
      -----  ---------------------------------   ------------------------
ASxxxx Linker V02.00 + NoICE + sdld,  page 20.
Hexadecimal

Area                               Addr   Size   Decimal Bytes (Attributes)
--------------------------------   ----   ----   ------- ----- ------------
BIT_BANK                           0022   0001 =      1. bytes (REL,OVR)

      Value  Global                              Global Defined In Module
      -----  ---------------------------------   ------------------------
ASxxxx Linker V02.00 + NoICE + sdld,  page 21.
Hexadecimal

Area                               Addr   Size   Decimal Bytes (Attributes)
--------------------------------   ----   ----   ------- ----- ------------
DSEG                               0000   0071 =    113. bytes (REL,CON)

      Value  Global                              Global Defined In Module
      -----  ---------------------------------   ------------------------
            000A  _bp                              

ASxxxx Linker V02.00 + NoICE + sdld,  page 22.
Hexadecimal

Area                               Addr   Size   Decimal Bytes (Attributes)
--------------------------------   ----   ----   ------- ----- ------------
OSEG                               0022   0000 =      0. bytes (REL,OVR)

      Value  Global                              Global Defined In Module
      -----  ---------------------------------   ------------------------
ASxxxx Linker V02.00 + NoICE + sdld,  page 23.
Hexadecimal

Area                               Addr   Size   Decimal Bytes (Attributes)
--------------------------------   ----   ----   ------- ----- ------------
ISEG                               0000   0000 =      0. bytes (REL,CON)

      Value  Global                              Global Defined In Module
      -----  ---------------------------------   ------------------------
ASxxxx Linker V02.00 + NoICE + sdld,  page 24.
Hexadecimal

Area                               Addr   Size   Decimal Bytes (Attributes)
--------------------------------   ----   ----   ------- ----- ------------
SSEG                               0023   00DD =    221. bytes (REL,OVR)

      Value  Global                              Global Defined In Module
      -----  ---------------------------------   ------------------------
            0023  __start__stack                   

ASxxxx Linker V02.00 + NoICE + sdld,  page 25.
Hexadecimal

Area                               Addr   Size   Decimal Bytes (Attributes)
--------------------------------   ----   ----   ------- ----- ------------
PSEG                               0000   0000 =      0. bytes (REL,CON,PAG,XDATA)

      Value  Global                              Global Defined In Module
      -----  ---------------------------------   ------------------------
ASxxxx Linker V02.00 + NoICE + sdld,  page 26.
Hexadecimal

Area                               Addr   Size   Decimal Bytes (Attributes)
--------------------------------   ----   ----   ------- ----- ------------
XSEG                               0000   00BA =    186. bytes (REL,CON,XDATA)

      Value  Global                              Global Defined In Module
      -----  ---------------------------------   ------------------------
       0D:  0005  _lcdgotoxy_PARM_2                
       0D:  0009  _lcdcreatechar_PARM_2            
       0D:  0046  _i                               
       0D:  0048  _j                               
       0D:  004A  _x                               
       0D:  004B  _x_move                          
       0D:  004C  _y_move                          
       0D:  0079  __mulint_PARM_2                  
       0D:  007B  __mullong_PARM_2                 
       0D:  007F  __modsint_PARM_2                 
       0D:  0083  __moduint_PARM_2                 
       0D:  0088  _vsprintf_PARM_2                 
       0D:  008B  _vsprintf_PARM_3                 
       0D:  008F  _vprintf_PARM_2                  
       0D:  00A3  __print_format_PARM_2            
       0D:  00A6  __print_format_PARM_3            
       0D:  00A9  __print_format_PARM_4            
       0D:  00B9  __gptrput_PARM_2                 

ASxxxx Linker V02.00 + NoICE + sdld,  page 27.
Hexadecimal

Area                               Addr   Size   Decimal Bytes (Attributes)
--------------------------------   ----   ----   ------- ----- ------------
XISEG                              00BA   0014 =     20. bytes (REL,CON,XDATA)

      Value  Global                              Global Defined In Module
      -----  ---------------------------------   ------------------------
       0D:  00BA  _ch_data                         
       0D:  00C0  _xyz_data                        
       0D:  00C6  _x_random                        
       0D:  00C7  _y_random                        
       0D:  00C8  _timeout                         
       0D:  00C9  _timerINTcount                   

ASxxxx Linker V02.00 + NoICE + sdld,  page 28.
Hexadecimal

Area                               Addr   Size   Decimal Bytes (Attributes)
--------------------------------   ----   ----   ------- ----- ------------
HOME                               0000   0013 =     19. bytes (REL,CON,CODE)

      Value  Global                              Global Defined In Module
      -----  ---------------------------------   ------------------------
       0C:  000E  __sdcc_program_startup           

ASxxxx Linker V02.00 + NoICE + sdld,  page 29.
Hexadecimal

Area                               Addr   Size   Decimal Bytes (Attributes)
--------------------------------   ----   ----   ------- ----- ------------
GSINIT0                            0013   0003 =      3. bytes (REL,CON,CODE)

      Value  Global                              Global Defined In Module
      -----  ---------------------------------   ------------------------
       0C:  0013  __sdcc_gsinit_startup            

ASxxxx Linker V02.00 + NoICE + sdld,  page 30.
Hexadecimal

Area                               Addr   Size   Decimal Bytes (Attributes)
--------------------------------   ----   ----   ------- ----- ------------
GSINIT1                            0016   0000 =      0. bytes (REL,CON,CODE)

      Value  Global                              Global Defined In Module
      -----  ---------------------------------   ------------------------
ASxxxx Linker V02.00 + NoICE + sdld,  page 31.
Hexadecimal

Area                               Addr   Size   Decimal Bytes (Attributes)
--------------------------------   ----   ----   ------- ----- ------------
GSINIT2                            0016   000A =     10. bytes (REL,CON,CODE)

      Value  Global                              Global Defined In Module
      -----  ---------------------------------   ------------------------
ASxxxx Linker V02.00 + NoICE + sdld,  page 32.
Hexadecimal

Area                               Addr   Size   Decimal Bytes (Attributes)
--------------------------------   ----   ----   ------- ----- ------------
GSINIT3                            0020   0022 =     34. bytes (REL,CON,CODE)

      Value  Global                              Global Defined In Module
      -----  ---------------------------------   ------------------------
       0C:  0020  __mcs51_genXINIT                 

ASxxxx Linker V02.00 + NoICE + sdld,  page 33.
Hexadecimal

Area                               Addr   Size   Decimal Bytes (Attributes)
--------------------------------   ----   ----   ------- ----- ------------
GSINIT4                            0042   002A =     42. bytes (REL,CON,CODE)

      Value  Global                              Global Defined In Module
      -----  ---------------------------------   ------------------------
       0C:  0042  __mcs51_genRAMCLEAR              
       0C:  0048  __mcs51_genXRAMCLEAR             

ASxxxx Linker V02.00 + NoICE + sdld,  page 34.
Hexadecimal

Area                               Addr   Size   Decimal Bytes (Attributes)
--------------------------------   ----   ----   ------- ----- ------------
GSINIT5                            006C   0000 =      0. bytes (REL,CON,CODE)

      Value  Global                              Global Defined In Module
      -----  ---------------------------------   ------------------------
ASxxxx Linker V02.00 + NoICE + sdld,  page 35.
Hexadecimal

Area                               Addr   Size   Decimal Bytes (Attributes)
--------------------------------   ----   ----   ------- ----- ------------
GSINIT                             006C   0000 =      0. bytes (REL,CON,CODE)

      Value  Global                              Global Defined In Module
      -----  ---------------------------------   ------------------------
ASxxxx Linker V02.00 + NoICE + sdld,  page 36.
Hexadecimal

Area                               Addr   Size   Decimal Bytes (Attributes)
--------------------------------   ----   ----   ------- ----- ------------
GSFINAL                            006C   0003 =      3. bytes (REL,CON,CODE)

      Value  Global                              Global Defined In Module
      -----  ---------------------------------   ------------------------
ASxxxx Linker V02.00 + NoICE + sdld,  page 37.
Hexadecimal

Area                               Addr   Size   Decimal Bytes (Attributes)
--------------------------------   ----   ----   ------- ----- ------------
CSEG                               006F   1CA1 =   7329. bytes (REL,CON,CODE)

      Value  Global                              Global Defined In Module
      -----  ---------------------------------   ------------------------
       0C:  006F  _lcdbusywait                     
       0C:  0078  _lcdinit                         
       0C:  00AB  _lcdgotoaddr                     
       0C:  00B8  _lcd_homeposition                
       0C:  00BE  _lcdputch                        
       0C:  00FF  _lcdputstr                       
       0C:  0155  _lcdclear                        
       0C:  015E  _lcdgotoxy                       
       0C:  01CF  _DDRAM_hexdump                   
       0C:  035F  _CGRAM_hexdump                   
       0C:  04F2  _lcdcreatechar                   
       0C:  0548  _LCD_print_CG                    
       0C:  055A  _lcd_simpledemo                  
       0C:  059B  _createAndDisplay_CULogo         
       0C:  077F  __sdcc_external_startup          
       0C:  0786  _timer0Init                      
       0C:  079F  _timer0_isr                      
       0C:  0867  _createAndStorePacmanCharacters  
       0C:  0930  _putRandom                       
       0C:  097F  _main                            
       0C:  0F61  _serial_init                     
       0C:  0F73  _putchar                         
       0C:  0F81  _putstr                          
       0C:  0FFF  _getchar                         
       0C:  101B  _rand                            
       0C:  1075  _srand                           
       0C:  108F  _atoi                            
       0C:  11C5  __mulint                         
       0C:  11E5  __mullong                        
       0C:  11E5  __mullong_dummy                  
       0C:  1251  __modsint                        
       0C:  12B7  __moduint                        
       0C:  13BD  _vsprintf                        
       0C:  141E  _sprintf                         
       0C:  1486  _vprintf                         
       0C:  14C5  _printf                          
       0C:  15CA  __print_format                   
       0C:  1CC3  _strlen                          
       0C:  1CDB  __gptrget                        
       0C:  1CF7  __gptrput                        
ASxxxx Linker V02.00 + NoICE + sdld,  page 38.
Hexadecimal

Area                               Addr   Size   Decimal Bytes (Attributes)
--------------------------------   ----   ----   ------- ----- ------------
CONST                              1D10   0113 =    275. bytes (REL,CON,CODE)

      Value  Global                              Global Defined In Module
      -----  ---------------------------------   ------------------------
ASxxxx Linker V02.00 + NoICE + sdld,  page 39.
Hexadecimal

Area                               Addr   Size   Decimal Bytes (Attributes)
--------------------------------   ----   ----   ------- ----- ------------
XINIT                              1E23   0014 =     20. bytes (REL,CON,CODE)

      Value  Global                              Global Defined In Module
      -----  ---------------------------------   ------------------------
ASxxxx Linker V02.00 + NoICE + sdld,  page 40.

Files Linked                              [ module(s) ]

obj\Release\lcd.rel                       [ 
obj\Release\main.rel                      [ 
obj\Release\serial.rel                    [ 


Libraries Linked                          [ object file ]

C:\Program Files (x86)\SDCC\bin\..\lib\l  [ rand.rel ]
C:\Program Files (x86)\SDCC\bin\..\lib\l  [ crtclear.rel ]
C:\Program Files (x86)\SDCC\bin\..\lib\l  [ crtxinit.rel ]
C:\Program Files (x86)\SDCC\bin\..\lib\l  [ _atoi.rel ]
C:\Program Files (x86)\SDCC\bin\..\lib\l  [ _mulint.rel ]
C:\Program Files (x86)\SDCC\bin\..\lib\l  [ _mullong.rel ]
C:\Program Files (x86)\SDCC\bin\..\lib\l  [ _modsint.rel ]
C:\Program Files (x86)\SDCC\bin\..\lib\l  [ _moduint.rel ]
C:\Program Files (x86)\SDCC\bin\..\lib\l  [ crtxclear.rel ]
C:\Program Files (x86)\SDCC\bin\..\lib\l  [ sprintf.rel ]
C:\Program Files (x86)\SDCC\bin\..\lib\l  [ _bp.rel ]
C:\Program Files (x86)\SDCC\bin\..\lib\l  [ vprintf.rel ]
C:\Program Files (x86)\SDCC\bin\..\lib\l  [ /0               ]
C:\Program Files (x86)\SDCC\bin\..\lib\l  [ crtpagesfr.rel ]
C:\Program Files (x86)\SDCC\bin\..\lib\l  [ _strlen.rel ]
C:\Program Files (x86)\SDCC\bin\..\lib\l  [ crtstart.rel ]
C:\Program Files (x86)\SDCC\bin\..\lib\l  [ _gptrget.rel ]
C:\Program Files (x86)\SDCC\bin\..\lib\l  [ _gptrput.rel ]

ASxxxx Linker V02.00 + NoICE + sdld,  page 41.

User Base Address Definitions

HOME = 0x0000
ISEG = 0x0000
BSEG = 0x0000

